target datalayout = "e-m:e-p270:32:32-p271:32:32-p272:64:64-i64:64-i128:128-f80:128-n8:16:32:64-S128"
target triple = "x86_64-pc-linux-gnu"

%struct.blf_params = type { ptr, ptr, ptr, i8, i8, ptr }
%struct.wtap_rec = type { i32, i32, i32, %struct.nstime_t, i32, %struct.nstime_t, i8, %union.anon, ptr, i8, %struct.Buffer, %struct.Buffer }
%struct.nstime_t = type { i64, i32 }
%union.anon = type { %struct.wtap_packet_header }
%struct.wtap_packet_header = type { i32, i32, i32, i32, %union.wtap_pseudo_header }
%union.wtap_pseudo_header = type { %struct.erf_mc_phdr }
%struct.erf_mc_phdr = type { %struct.erf_phdr, [16 x %struct.erf_ehdr], %union.anon.1 }
%struct.erf_phdr = type { i64, i8, i8, i16, i16, i16 }
%struct.erf_ehdr = type { i64 }
%union.anon.1 = type { i32 }
%struct.Buffer = type { ptr, i64, i64, i64 }

; Function Attrs: inlinehint nounwind null_pointer_is_valid sspstrong uwtable
define internal void @ws_buffer_increase_length(ptr noundef %0, i64 noundef %1) #12 {
  %3 = alloca ptr, align 8
  %4 = alloca i64, align 8
  store ptr %0, ptr %3, align 8
  store i64 %1, ptr %4, align 8
  %5 = load i64, ptr %4, align 8
  %6 = load ptr, ptr %3, align 8
  %7 = getelementptr inbounds nuw %struct.Buffer, ptr %6, i32 0, i32 3
  %8 = load i64, ptr %7, align 8
  %9 = add i64 %8, %5
  store i64 %9, ptr %7, align 8
  ret void
}

; Function Attrs: null_pointer_is_valid sspstrong uwtable
define internal zeroext i1 @blf_read_bytes(ptr noundef %0, i64 noundef %1, ptr noundef %2, i64 noundef %3, ptr noundef %4, ptr noundef %5) #2 {
  %7 = alloca i1, align 1
  %8 = alloca ptr, align 8
  %9 = alloca i64, align 8
  %10 = alloca ptr, align 8
  %11 = alloca i64, align 8
  %12 = alloca ptr, align 8
  %13 = alloca ptr, align 8
  store ptr %0, ptr %8, align 8
  store i64 %1, ptr %9, align 8
  store ptr %2, ptr %10, align 8
  store i64 %3, ptr %11, align 8
  store ptr %4, ptr %12, align 8
  store ptr %5, ptr %13, align 8
  %14 = load ptr, ptr %8, align 8
  %15 = load i64, ptr %9, align 8
  %16 = load ptr, ptr %10, align 8
  %17 = load i64, ptr %11, align 8
  %18 = load ptr, ptr %12, align 8
  %19 = load ptr, ptr %13, align 8
  %20 = call zeroext i1 @blf_read_bytes_or_eof(ptr noundef %14, i64 noundef %15, ptr noundef %16, i64 noundef %17, ptr noundef %18, ptr noundef %19)
  br i1 %20, label %28, label %21

21:                                               ; preds = %6
  %22 = load ptr, ptr %12, align 8
  %23 = load i32, ptr %22, align 4
  %24 = icmp eq i32 %23, 0
  br i1 %24, label %25, label %27

25:                                               ; preds = %21
  %26 = load ptr, ptr %12, align 8
  store i32 -12, ptr %26, align 4
  br label %27

27:                                               ; preds = %25, %21
  store i1 false, ptr %7, align 1
  br label %29

28:                                               ; preds = %6
  store i1 true, ptr %7, align 1
  br label %29

29:                                               ; preds = %28, %27
  %30 = load i1, ptr %7, align 1
  ret i1 %30
}

; Function Attrs: inlinehint nounwind null_pointer_is_valid sspstrong uwtable
define internal ptr @ws_buffer_end_ptr(ptr noundef %0) #12 {
  %2 = alloca ptr, align 8
  store ptr %0, ptr %2, align 8
  %3 = load ptr, ptr %2, align 8
  %4 = getelementptr inbounds nuw %struct.Buffer, ptr %3, i32 0, i32 0
  %5 = load ptr, ptr %4, align 8
  %6 = load ptr, ptr %2, align 8
  %7 = getelementptr inbounds nuw %struct.Buffer, ptr %6, i32 0, i32 3
  %8 = load i64, ptr %7, align 8
  %9 = getelementptr i8, ptr %5, i64 %8
  ret ptr %9
}

; Function Attrs: null_pointer_is_valid sspstrong uwtable
define internal zeroext i1 @blf_can_fill_buf_and_rec(ptr noundef %0, ptr noundef %1, ptr noundef %2, i32 noundef %3, i8 noundef zeroext %4, i8 noundef zeroext %5, i64 noundef %6, i32 noundef %7, i64 noundef %8, i16 noundef zeroext %9, i8 noundef zeroext %10) #2 {
  %12 = alloca i1, align 1
  %13 = alloca ptr, align 8
  %14 = alloca ptr, align 8
  %15 = alloca ptr, align 8
  %16 = alloca i32, align 4
  %17 = alloca i8, align 1
  %18 = alloca i8, align 1
  %19 = alloca i64, align 8
  %20 = alloca i32, align 4
  %21 = alloca i64, align 8
  %22 = alloca i16, align 2
  %23 = alloca i8, align 1
  %24 = alloca [8 x i8], align 1
  %25 = alloca i32, align 4
  %26 = alloca i32, align 4
  %27 = alloca i32, align 4
  store ptr %0, ptr %13, align 8
  store ptr %1, ptr %14, align 8
  store ptr %2, ptr %15, align 8
  store i32 %3, ptr %16, align 4
  store i8 %4, ptr %17, align 1
  store i8 %5, ptr %18, align 1
  store i64 %6, ptr %19, align 8
  store i32 %7, ptr %20, align 4
  store i64 %8, ptr %21, align 8
  store i16 %9, ptr %22, align 2
  store i8 %10, ptr %23, align 1
  call void @llvm.lifetime.start.p0(i64 8, ptr %24) #13
  call void @llvm.lifetime.start.p0(i64 4, ptr %25) #13
  call void @llvm.lifetime.start.p0(i64 4, ptr %26) #13
  %28 = load i32, ptr %16, align 4
  %29 = and i32 %28, -16777216
  %30 = lshr i32 %29, 24
  %31 = trunc i32 %30 to i8
  %32 = getelementptr [8 x i8], ptr %24, i64 0, i64 0
  store i8 %31, ptr %32, align 1
  %33 = load i32, ptr %16, align 4
  %34 = and i32 %33, 16711680
  %35 = lshr i32 %34, 16
  %36 = trunc i32 %35 to i8
  %37 = getelementptr [8 x i8], ptr %24, i64 0, i64 1
  store i8 %36, ptr %37, align 1
  %38 = load i32, ptr %16, align 4
  %39 = and i32 %38, 65280
  %40 = lshr i32 %39, 8
  %41 = trunc i32 %40 to i8
  %42 = getelementptr [8 x i8], ptr %24, i64 0, i64 2
  store i8 %41, ptr %42, align 1
  %43 = load i32, ptr %16, align 4
  %44 = and i32 %43, 255
  %45 = trunc i32 %44 to i8
  %46 = getelementptr [8 x i8], ptr %24, i64 0, i64 3
  store i8 %45, ptr %46, align 1
  %47 = load i8, ptr %17, align 1
  %48 = getelementptr [8 x i8], ptr %24, i64 0, i64 4
  store i8 %47, ptr %48, align 1
  %49 = load i8, ptr %23, align 1
  %50 = getelementptr [8 x i8], ptr %24, i64 0, i64 5
  store i8 %49, ptr %50, align 1
  %51 = getelementptr [8 x i8], ptr %24, i64 0, i64 6
  store i8 0, ptr %51, align 1
  %52 = getelementptr [8 x i8], ptr %24, i64 0, i64 7
  store i8 0, ptr %52, align 1
  %53 = load ptr, ptr %13, align 8
  %54 = getelementptr inbounds nuw %struct.blf_params, ptr %53, i32 0, i32 1
  %55 = load ptr, ptr %54, align 8
  %56 = getelementptr inbounds nuw %struct.wtap_rec, ptr %55, i32 0, i32 11
  %57 = load i8, ptr %18, align 1
  %58 = zext i8 %57 to i64
  %59 = add i64 8, %58
  call void @ws_buffer_assure_space(ptr noundef %56, i64 noundef %59)
  %60 = load ptr, ptr %13, align 8
  %61 = getelementptr inbounds nuw %struct.blf_params, ptr %60, i32 0, i32 1
  %62 = load ptr, ptr %61, align 8
  %63 = getelementptr inbounds nuw %struct.wtap_rec, ptr %62, i32 0, i32 11
  %64 = getelementptr inbounds [8 x i8], ptr %24, i64 0, i64 0
  call void @ws_buffer_append(ptr noundef %63, ptr noundef %64, i64 noundef 8)
  %65 = load i8, ptr %18, align 1
  %66 = zext i8 %65 to i64
  %67 = add i64 8, %66
  %68 = trunc i64 %67 to i32
  store i32 %68, ptr %25, align 4
  %69 = load i8, ptr %17, align 1
  %70 = zext i8 %69 to i64
  %71 = add i64 8, %70
  %72 = trunc i64 %71 to i32
  store i32 %72, ptr %26, align 4
  %73 = load i8, ptr %18, align 1
  %74 = zext i8 %73 to i32
  %75 = icmp sgt i32 %74, 0
  br i1 %75, label %76, label %93

76:                                               ; preds = %11
  %77 = load ptr, ptr %13, align 8
  %78 = load i64, ptr %19, align 8
  %79 = load ptr, ptr %13, align 8
  %80 = getelementptr inbounds nuw %struct.blf_params, ptr %79, i32 0, i32 1
  %81 = load ptr, ptr %80, align 8
  %82 = getelementptr inbounds nuw %struct.wtap_rec, ptr %81, i32 0, i32 11
  %83 = call ptr @ws_buffer_end_ptr(ptr noundef %82)
  %84 = load i8, ptr %18, align 1
  %85 = zext i8 %84 to i64
  %86 = load ptr, ptr %14, align 8
  %87 = load ptr, ptr %15, align 8
  %88 = call zeroext i1 @blf_read_bytes(ptr noundef %77, i64 noundef %78, ptr noundef %83, i64 noundef %85, ptr noundef %86, ptr noundef %87)
  br i1 %88, label %93, label %89

89:                                               ; preds = %76
  br label %90

90:                                               ; preds = %89
  br label %91

91:                                               ; preds = %90
  br label %92

92:                                               ; preds = %91
  store i1 false, ptr %12, align 1
  store i32 1, ptr %27, align 4
  br label %106

93:                                               ; preds = %76, %11
  %94 = load ptr, ptr %13, align 8
  %95 = getelementptr inbounds nuw %struct.blf_params, ptr %94, i32 0, i32 1
  %96 = load ptr, ptr %95, align 8
  %97 = getelementptr inbounds nuw %struct.wtap_rec, ptr %96, i32 0, i32 11
  %98 = load i8, ptr %18, align 1
  %99 = zext i8 %98 to i64
  call void @ws_buffer_increase_length(ptr noundef %97, i64 noundef %99)
  %100 = load ptr, ptr %13, align 8
  %101 = load i32, ptr %20, align 4
  %102 = load i64, ptr %21, align 8
  %103 = load i16, ptr %22, align 2
  %104 = load i32, ptr %25, align 4
  %105 = load i32, ptr %26, align 4
  call void @blf_init_rec(ptr noundef %100, i32 noundef %101, i64 noundef %102, i32 noundef 125, i16 noundef zeroext %103, i16 noundef zeroext -1, i32 noundef %104, i32 noundef %105)
  store i1 true, ptr %12, align 1
  store i32 1, ptr %27, align 4
  br label %106

106:                                              ; preds = %93, %92
  call void @llvm.lifetime.end.p0(i64 4, ptr %26) #13
  call void @llvm.lifetime.end.p0(i64 4, ptr %25) #13
  call void @llvm.lifetime.end.p0(i64 8, ptr %24) #13
  %107 = load i1, ptr %12, align 1
  ret i1 %107
}