; Function Attrs: null_pointer_is_valid sspstrong uwtable
define internal fastcc noundef zeroext i1 @blf_can_fill_buf_and_rec(ptr noundef readonly captures(none) %0, ptr noundef %1, ptr noundef %2, i32 noundef %3, i8 noundef zeroext %4, i8 noundef zeroext %5, i64 noundef %6, i32 noundef %7, i64 noundef %8, i16 noundef zeroext %9, i8 noundef zeroext range(i8 0, 8) %10) unnamed_addr #2 {
  %12 = alloca [8 x i8], align 1
  call void @llvm.lifetime.start.p0(i64 8, ptr nonnull %12) #14
  %13 = lshr i32 %3, 24
  %14 = trunc nuw i32 %13 to i8
  store i8 %14, ptr %12, align 1
  %15 = lshr i32 %3, 16
  %16 = trunc i32 %15 to i8
  %17 = getelementptr inbounds nuw i8, ptr %12, i64 1
  store i8 %16, ptr %17, align 1
  %18 = lshr i32 %3, 8
  %19 = trunc i32 %18 to i8
  %20 = getelementptr inbounds nuw i8, ptr %12, i64 2
  store i8 %19, ptr %20, align 1
  %21 = trunc i32 %3 to i8
  %22 = getelementptr inbounds nuw i8, ptr %12, i64 3
  store i8 %21, ptr %22, align 1
  %23 = getelementptr inbounds nuw i8, ptr %12, i64 4
  store i8 %4, ptr %23, align 1
  %24 = getelementptr inbounds nuw i8, ptr %12, i64 5
  store i8 %10, ptr %24, align 1
  %25 = getelementptr inbounds nuw i8, ptr %12, i64 6
  store i8 0, ptr %25, align 1
  %26 = getelementptr inbounds nuw i8, ptr %12, i64 7
  store i8 0, ptr %26, align 1
  %27 = getelementptr inbounds nuw i8, ptr %0, i64 8
  %28 = load ptr, ptr %27, align 8
  %29 = getelementptr inbounds nuw i8, ptr %28, i64 280
  %30 = zext i8 %5 to i64
  %31 = add nuw nsw i64 %30, 8
  tail call void @ws_buffer_assure_space(ptr noundef nonnull %29, i64 noundef %31)
  %32 = load ptr, ptr %27, align 8
  %33 = getelementptr inbounds nuw i8, ptr %32, i64 280
  call void @ws_buffer_append(ptr noundef nonnull %33, ptr noundef nonnull %12, i64 noundef 8)
  %34 = trunc nuw nsw i64 %31 to i32
  %35 = zext i8 %4 to i32
  %36 = add nuw nsw i32 %35, 8
  %.not = icmp eq i8 %5, 0
  br i1 %.not, label %blf_read_bytes.exit, label %37

37:                                               ; preds = %11
  %38 = load ptr, ptr %27, align 8
  %39 = getelementptr inbounds nuw i8, ptr %38, i64 280
  %.val = load ptr, ptr %39, align 8
  %40 = getelementptr i8, ptr %38, i64 304
  %.val26 = load i64, ptr %40, align 8
  %41 = getelementptr i8, ptr %.val, i64 %.val26
  %42 = call fastcc zeroext i1 @blf_read_bytes_or_eof(ptr noundef readonly %0, i64 noundef %6, ptr noundef %41, i64 noundef range(i64 0, 4294967296) %30, ptr noundef %1, ptr noundef %2)
  br i1 %42, label %blf_read_bytes.exit, label %43

43:                                               ; preds = %37
  %44 = load i32, ptr %1, align 4
  %45 = icmp eq i32 %44, 0
  br i1 %45, label %46, label %blf_read_bytes.exit.thread

46:                                               ; preds = %43
  store i32 -12, ptr %1, align 4
  br label %blf_read_bytes.exit.thread

blf_read_bytes.exit:                              ; preds = %37, %11
  %47 = load ptr, ptr %27, align 8
  %48 = getelementptr inbounds nuw i8, ptr %47, i64 304
  %49 = load i64, ptr %48, align 8
  %50 = add i64 %49, %30
  store i64 %50, ptr %48, align 8
  call fastcc void @blf_init_rec(ptr noundef %0, i32 noundef %7, i64 noundef %8, i32 noundef 125, i16 noundef zeroext %9, i16 noundef zeroext -1, i32 noundef %34, i32 noundef %36)
  br label %blf_read_bytes.exit.thread

blf_read_bytes.exit.thread:                       ; preds = %46, %43, %blf_read_bytes.exit
  %.0 = phi i1 [ true, %blf_read_bytes.exit ], [ false, %43 ], [ false, %46 ]
  call void @llvm.lifetime.end.p0(i64 8, ptr nonnull %12) #14
  ret i1 %.0
}